Certificate:
    Data:
        Version: 3 (0x2)
        Serial Number: 1 (0x1)
    Signature Algorithm: sha1WithRSAEncryption
        Issuer: DC=org, DC=teamtqcd, O=Team TQCD Inc, OU=Team TQCD Root CA, CN=Team TQCD Root CA
        Validity
            Not Before: May 16 08:58:33 2021 GMT
            Not After : May 16 08:58:33 2031 GMT
        Subject: DC=org, DC=teamtqcd, O=Team TQCD Inc, OU=Team TQCD Root CA, CN=Team TQCD Root CA
        Subject Public Key Info:
            Public Key Algorithm: rsaEncryption
                Public-Key: (2048 bit)
                Modulus:
                    00:a2:37:15:eb:66:85:19:83:b0:66:a7:cb:53:cc:
                    7d:3c:2d:cb:88:3e:f4:ae:73:d4:62:90:a3:ee:13:
                    e5:90:32:23:ac:97:79:c1:9b:e4:79:c2:13:90:13:
                    d7:78:ac:e8:37:08:3c:b7:d9:da:09:f7:cb:22:15:
                    aa:9e:69:92:08:b5:64:dd:9d:85:fe:f5:11:04:6b:
                    77:d4:0f:c3:b6:2f:7a:9d:6f:a7:4a:fa:2a:9a:9a:
                    38:85:40:b3:c3:30:ba:5a:17:8e:33:d2:5d:57:d0:
                    eb:11:b5:24:a8:f4:2d:3d:95:35:72:99:70:da:b1:
                    39:9e:17:4d:ff:55:a9:69:93:ce:8d:05:c7:95:2c:
                    72:31:47:55:eb:68:b0:df:52:c7:70:b9:13:c7:e5:
                    f7:bf:83:ba:44:36:5e:77:4d:6e:8c:ac:27:9d:73:
                    64:da:bb:83:74:14:67:22:1c:56:21:cb:6b:21:44:
                    0a:0b:50:d7:3f:31:44:be:92:fe:7f:45:e6:a6:a9:
                    39:d7:67:69:2d:f6:05:c6:ad:de:2c:be:9d:66:6d:
                    10:86:79:19:d1:12:0d:70:08:64:b4:37:92:83:b9:
                    d8:55:70:95:04:7d:cf:71:cf:6f:d5:37:35:f7:d5:
                    0a:15:0f:c7:d5:dc:77:dd:56:80:64:f7:db:7a:08:
                    01:29
                Exponent: 65537 (0x10001)
        X509v3 extensions:
            X509v3 Key Usage: critical
                Certificate Sign, CRL Sign
            X509v3 Basic Constraints: critical
                CA:TRUE
            X509v3 Subject Key Identifier: 
                4F:A8:02:2A:03:C0:D2:30:86:DB:5A:EB:7D:38:63:15:48:A6:37:14
            X509v3 Authority Key Identifier: 
                keyid:4F:A8:02:2A:03:C0:D2:30:86:DB:5A:EB:7D:38:63:15:48:A6:37:14

    Signature Algorithm: sha1WithRSAEncryption
         31:a5:e6:a0:4d:a4:8a:39:ba:db:04:e4:0b:c1:f2:ed:7c:c8:
         a7:95:9d:70:3b:ef:bc:97:3c:61:36:b3:52:8f:86:f0:bc:19:
         43:d8:97:f4:ad:5b:ad:64:fa:c7:d7:6b:73:18:69:c9:45:fb:
         48:a0:d7:8e:2d:61:af:a1:17:03:19:09:70:b5:da:80:13:8e:
         2d:1f:97:2b:be:c1:02:3a:56:34:3b:81:d4:a7:d0:de:1f:11:
         c9:f2:a6:36:53:1c:a7:9d:9e:d6:ef:25:9f:5b:c1:22:f1:07:
         a5:f8:8c:f7:e9:f8:eb:05:e5:bf:e5:f4:5e:97:42:5c:2e:84:
         e6:b7:69:cd:25:1e:54:cf:72:47:23:c3:36:4b:e9:a5:59:00:
         9e:15:b4:72:c0:4f:22:e7:2a:9e:dd:14:69:7b:cd:d7:d1:25:
         92:85:15:cd:63:39:06:5d:4a:2e:5c:05:bb:a9:7f:13:de:4b:
         3c:af:dc:ce:11:5d:c9:5f:36:f1:aa:62:05:3b:5b:75:12:9c:
         51:59:ad:5c:9a:a7:53:9a:10:e2:16:47:a6:69:5d:7c:41:66:
         ac:71:2d:ff:46:2c:02:1f:ee:e1:91:ed:a7:3a:38:23:fd:70:
         c3:c3:c0:29:d9:f7:ae:43:61:cc:c0:d7:8b:62:32:40:fe:5b:
         67:80:bd:0b
-----BEGIN CERTIFICATE-----
MIID3DCCAsSgAwIBAgIBATANBgkqhkiG9w0BAQUFADB/MRMwEQYKCZImiZPyLGQB
GRYDb3JnMRgwFgYKCZImiZPyLGQBGRYIdGVhbXRxY2QxFjAUBgNVBAoMDVRlYW0g
VFFDRCBJbmMxGjAYBgNVBAsMEVRlYW0gVFFDRCBSb290IENBMRowGAYDVQQDDBFU
ZWFtIFRRQ0QgUm9vdCBDQTAeFw0yMTA1MTYwODU4MzNaFw0zMTA1MTYwODU4MzNa
MH8xEzARBgoJkiaJk/IsZAEZFgNvcmcxGDAWBgoJkiaJk/IsZAEZFgh0ZWFtdHFj
ZDEWMBQGA1UECgwNVGVhbSBUUUNEIEluYzEaMBgGA1UECwwRVGVhbSBUUUNEIFJv
b3QgQ0ExGjAYBgNVBAMMEVRlYW0gVFFDRCBSb290IENBMIIBIjANBgkqhkiG9w0B
AQEFAAOCAQ8AMIIBCgKCAQEAojcV62aFGYOwZqfLU8x9PC3LiD70rnPUYpCj7hPl
kDIjrJd5wZvkecITkBPXeKzoNwg8t9naCffLIhWqnmmSCLVk3Z2F/vURBGt31A/D
ti96nW+nSvoqmpo4hUCzwzC6WheOM9JdV9DrEbUkqPQtPZU1cplw2rE5nhdN/1Wp
aZPOjQXHlSxyMUdV62iw31LHcLkTx+X3v4O6RDZed01ujKwnnXNk2ruDdBRnIhxW
IctrIUQKC1DXPzFEvpL+f0Xmpqk512dpLfYFxq3eLL6dZm0QhnkZ0RINcAhktDeS
g7nYVXCVBH3Pcc9v1Tc199UKFQ/H1dx33VaAZPfbeggBKQIDAQABo2MwYTAOBgNV
HQ8BAf8EBAMCAQYwDwYDVR0TAQH/BAUwAwEB/zAdBgNVHQ4EFgQUT6gCKgPA0jCG
21rrfThjFUimNxQwHwYDVR0jBBgwFoAUT6gCKgPA0jCG21rrfThjFUimNxQwDQYJ
KoZIhvcNAQEFBQADggEBADGl5qBNpIo5utsE5AvB8u18yKeVnXA777yXPGE2s1KP
hvC8GUPYl/StW61k+sfXa3MYaclF+0ig144tYa+hFwMZCXC12oATji0flyu+wQI6
VjQ7gdSn0N4fEcnypjZTHKedntbvJZ9bwSLxB6X4jPfp+OsF5b/l9F6XQlwuhOa3
ac0lHlTPckcjwzZL6aVZAJ4VtHLATyLnKp7dFGl7zdfRJZKFFc1jOQZdSi5cBbup
fxPeSzyv3M4RXclfNvGqYgU7W3USnFFZrVyap1OaEOIWR6ZpXXxBZqxxLf9GLAIf
7uGR7ac6OCP9cMPDwCnZ965DYczA14tiMkD+W2eAvQs=
-----END CERTIFICATE-----
