Certificate:
    Data:
        Version: 3 (0x2)
        Serial Number: 2 (0x2)
    Signature Algorithm: sha1WithRSAEncryption
        Issuer: DC=org, DC=teamtqcd, O=Team TQCD Inc, OU=Team TQCD Root CA, CN=Team TQCD Root CA
        Validity
            Not Before: May 16 09:02:45 2021 GMT
            Not After : May 16 09:02:45 2031 GMT
        Subject: DC=org, DC=teamtqcd, O=Team TQCD Inc, OU=Team TQCD Root CA, CN=Team TQCD Root CA
        Subject Public Key Info:
            Public Key Algorithm: rsaEncryption
                Public-Key: (2048 bit)
                Modulus:
                    00:d2:e2:a7:65:3b:ba:d8:ad:ab:a2:71:86:df:c9:
                    51:0f:f3:8a:dd:86:1a:65:43:33:d6:6f:15:41:29:
                    a1:e7:5d:cc:dd:a3:a9:dd:42:65:2a:6c:3b:32:2e:
                    a9:1a:da:4b:46:5a:eb:c0:c1:94:31:35:f0:ed:8b:
                    44:ac:98:e9:d2:f7:c4:9d:aa:5c:cc:40:16:32:34:
                    22:38:ed:9e:d1:2c:83:31:73:78:0a:32:73:3c:0a:
                    5e:55:ce:31:da:97:b0:16:16:ef:8b:b2:de:e5:a3:
                    1b:75:9c:36:da:01:43:d9:e1:53:fe:6e:d7:87:d9:
                    d4:65:c4:16:87:66:09:12:d0:05:4f:9d:a0:84:02:
                    73:11:b3:94:3d:d7:d0:c7:b0:05:99:2e:2a:d9:ea:
                    69:d8:94:4a:59:ba:9c:a8:f9:0c:03:35:b7:92:e4:
                    e6:08:b7:c0:f3:67:9c:d0:7b:0e:95:d5:f0:9a:d5:
                    4d:10:cb:b6:12:0f:1e:81:11:67:e6:ff:5b:52:1f:
                    6c:26:b3:04:cf:f6:c5:0f:72:70:27:d1:2c:e5:41:
                    1d:e1:bd:82:3f:03:9b:27:46:1e:d1:26:0a:4b:4e:
                    5d:18:c1:bc:19:a4:89:76:a2:70:bb:6d:67:99:b3:
                    d1:22:a1:08:ef:df:b3:e0:3d:c0:d5:8b:11:ac:5a:
                    30:29
                Exponent: 65537 (0x10001)
        X509v3 extensions:
            X509v3 Key Usage: critical
                Certificate Sign, CRL Sign
            X509v3 Basic Constraints: critical
                CA:TRUE, pathlen:0
            X509v3 Subject Key Identifier: 
                8B:01:B7:D1:99:CB:B9:79:48:4C:2D:B0:7D:1B:B0:B0:D0:CA:75:76
            X509v3 Authority Key Identifier: 
                keyid:4F:A8:02:2A:03:C0:D2:30:86:DB:5A:EB:7D:38:63:15:48:A6:37:14

    Signature Algorithm: sha1WithRSAEncryption
         41:35:9f:86:07:16:ed:8e:77:6f:0d:ae:89:0a:5b:a1:c4:16:
         d9:77:dc:fa:9f:e8:c6:3d:b5:0b:aa:84:bc:36:db:9f:7d:23:
         a3:80:98:e3:c1:54:5f:e1:a2:72:1d:8f:bd:5c:de:2b:d9:58:
         52:97:36:fb:04:1d:a6:e1:1d:be:34:12:26:ca:d9:12:76:32:
         61:c6:7a:42:5c:95:a9:cc:74:15:b3:1b:23:c1:77:c6:ea:23:
         d7:22:35:14:91:00:96:2e:ee:2b:9e:79:24:fb:08:ef:5f:ae:
         6d:2d:f2:d0:97:a8:15:ec:ed:a3:0a:eb:79:86:e4:8e:06:55:
         f8:1f:eb:d0:27:21:7b:52:99:a6:a3:35:2c:9d:09:11:e6:f1:
         07:09:6d:38:49:9b:08:27:cb:20:4d:a6:ab:0c:55:d2:75:d1:
         7b:a1:47:c3:71:06:30:db:44:c9:9a:0d:d4:31:1b:00:ae:8f:
         1d:8b:8d:2c:4a:a6:47:bd:7e:0b:43:08:dc:41:6c:2f:21:03:
         4f:61:2a:98:c0:37:b0:c0:74:b2:d1:16:7b:ee:63:2b:2f:4a:
         ba:46:94:d5:b9:1d:28:a7:45:b7:97:b2:b6:ff:a0:e3:0b:8d:
         8b:7a:de:cd:a6:7c:3d:36:4b:f7:2d:c5:22:c6:27:4c:d9:bb:
         11:e3:4d:36
-----BEGIN CERTIFICATE-----
MIID3zCCAsegAwIBAgIBAjANBgkqhkiG9w0BAQUFADB/MRMwEQYKCZImiZPyLGQB
GRYDb3JnMRgwFgYKCZImiZPyLGQBGRYIdGVhbXRxY2QxFjAUBgNVBAoMDVRlYW0g
VFFDRCBJbmMxGjAYBgNVBAsMEVRlYW0gVFFDRCBSb290IENBMRowGAYDVQQDDBFU
ZWFtIFRRQ0QgUm9vdCBDQTAeFw0yMTA1MTYwOTAyNDVaFw0zMTA1MTYwOTAyNDVa
MH8xEzARBgoJkiaJk/IsZAEZFgNvcmcxGDAWBgoJkiaJk/IsZAEZFgh0ZWFtdHFj
ZDEWMBQGA1UECgwNVGVhbSBUUUNEIEluYzEaMBgGA1UECwwRVGVhbSBUUUNEIFJv
b3QgQ0ExGjAYBgNVBAMMEVRlYW0gVFFDRCBSb290IENBMIIBIjANBgkqhkiG9w0B
AQEFAAOCAQ8AMIIBCgKCAQEA0uKnZTu62K2ronGG38lRD/OK3YYaZUMz1m8VQSmh
513M3aOp3UJlKmw7Mi6pGtpLRlrrwMGUMTXw7YtErJjp0vfEnapczEAWMjQiOO2e
0SyDMXN4CjJzPApeVc4x2pewFhbvi7Le5aMbdZw22gFD2eFT/m7Xh9nUZcQWh2YJ
EtAFT52ghAJzEbOUPdfQx7AFmS4q2epp2JRKWbqcqPkMAzW3kuTmCLfA82ec0HsO
ldXwmtVNEMu2Eg8egRFn5v9bUh9sJrMEz/bFD3JwJ9Es5UEd4b2CPwObJ0Ye0SYK
S05dGMG8GaSJdqJwu21nmbPRIqEI79+z4D3A1YsRrFowKQIDAQABo2YwZDAOBgNV
HQ8BAf8EBAMCAQYwEgYDVR0TAQH/BAgwBgEB/wIBADAdBgNVHQ4EFgQUiwG30ZnL
uXlITC2wfRuwsNDKdXYwHwYDVR0jBBgwFoAUT6gCKgPA0jCG21rrfThjFUimNxQw
DQYJKoZIhvcNAQEFBQADggEBAEE1n4YHFu2Od28NrokKW6HEFtl33Pqf6MY9tQuq
hLw22599I6OAmOPBVF/honIdj71c3ivZWFKXNvsEHabhHb40EibK2RJ2MmHGekJc
lanMdBWzGyPBd8bqI9ciNRSRAJYu7iueeST7CO9frm0t8tCXqBXs7aMK63mG5I4G
Vfgf69AnIXtSmaajNSydCRHm8QcJbThJmwgnyyBNpqsMVdJ10XuhR8NxBjDbRMma
DdQxGwCujx2LjSxKpke9fgtDCNxBbC8hA09hKpjAN7DAdLLRFnvuYysvSrpGlNW5
HSinRbeXsrb/oOMLjYt63s2mfD02S/ctxSLGJ0zZuxHjTTY=
-----END CERTIFICATE-----
